; Function Attrs: mustprogress uwtable
define void @_Z28grpc_slice_from_moved_bufferSt10unique_ptrIcN9grpc_core17DefaultDeleteCharEEm(ptr dead_on_unwind noalias writable writeonly sret(%struct.grpc_slice) align 8 captures(none) initializes((0, 9)) %0, ptr noundef captures(none) %1, i64 noundef %2) local_unnamed_addr #3 personality ptr @__gxx_personality_v0 {
  %4 = load ptr, ptr %1, align 8
  %5 = icmp ult i64 %2, 24
  br i1 %5, label %6, label %10

6:                                                ; preds = %3
  %7 = trunc nuw nsw i64 %2 to i8
  %8 = getelementptr inbounds nuw i8, ptr %0, i64 8
  store i8 %7, ptr %8, align 8, !tbaa !9
  %9 = getelementptr inbounds nuw i8, ptr %0, i64 9
  tail call void @llvm.memcpy.p0.p0.i64(ptr nonnull align 1 %9, ptr align 1 %4, i64 %2, i1 false)
  br label %17

10:                                               ; preds = %3
  %11 = ptrtoint ptr %4 to i64
  %12 = tail call noalias noundef nonnull dereferenceable(24) ptr @_Znwm(i64 noundef 24) #28
  store i64 1, ptr %12, align 8, !tbaa !20
  %13 = getelementptr inbounds nuw i8, ptr %12, i64 8
  store ptr @_ZN9grpc_core24MovedStringSliceRefCount7DestroyEP19grpc_slice_refcount, ptr %13, align 8, !tbaa !23
  %14 = getelementptr inbounds nuw i8, ptr %12, i64 16
  store i64 %11, ptr %14, align 8, !tbaa !71
  store ptr null, ptr %1, align 8, !tbaa !71
  %15 = getelementptr inbounds nuw i8, ptr %0, i64 8
  %16 = getelementptr inbounds nuw i8, ptr %0, i64 16
  store ptr %4, ptr %16, align 8, !tbaa !9
  store i64 %2, ptr %15, align 8, !tbaa !9
  br label %17

17:                                               ; preds = %10, %6
  %.sink = phi ptr [ null, %6 ], [ %12, %10 ]
  store ptr %.sink, ptr %0, align 8, !tbaa !3
  ret void
}